target datalayout = "e-m:e-p270:32:32-p271:32:32-p272:64:64-i64:64-i128:128-f80:128-n8:16:32:64-S128"
target triple = "x86_64-pc-linux-gnu"

%struct.CVodeMemRec = type { ptr, double, ptr, ptr, i32, i32, double, double, ptr, i32, i32, ptr, ptr, i32, i32, ptr, i32, i32, double, double, ptr, i32, i32, i32, i32, ptr, ptr, ptr, i32, i32, ptr, ptr, ptr, i32, double, i32, i32, double, ptr, ptr, ptr, i32, ptr, ptr, i32, i32, i32, double, ptr, ptr, ptr, [13 x ptr], ptr, ptr, ptr, ptr, ptr, ptr, ptr, ptr, ptr, [13 x ptr], ptr, ptr, ptr, ptr, [13 x ptr], ptr, ptr, ptr, ptr, ptr, i32, [13 x ptr], ptr, ptr, ptr, ptr, ptr, i32, i32, double, i32, i32, i32, i32, i32, double, double, double, double, double, double, double, double, [14 x double], [6 x double], [13 x double], double, double, double, double, double, double, double, double, i32, double, double, i32, double, double, ptr, i32, i64, i32, i32, i32, double, double, double, double, double, double, double, double, double, double, double, double, i64, i32, i64, i64, i64, i64, i64, i64, i64, i64, i64, ptr, i64, i64, ptr, i64, i64, ptr, i64, i64, i64, i64, i64, i64, i32, double, double, double, i64, i64, i64, i64, i64, i64, ptr, i32, ptr, i32, ptr, i32, ptr, i32, i32, i64, i32, ptr, i32, ptr, ptr, ptr, ptr, ptr, ptr, i32, i32, ptr, ptr, ptr, ptr, ptr, i64, double, i32, i32, i64, double, double, double, i32, i32, double, i32, i32, i32, i32, i32, i32, i32, i32, i32, i32, i32, i32, i32, i32, i32, i32, ptr, i64, i32, [6 x [4 x double]], i32, i64, ptr, i32, ptr, ptr, double, double, double, ptr, ptr, ptr, double, double, i32, i32, i64, ptr, i32, ptr, i32, i32, [13 x double], ptr, ptr, ptr, i32, ptr, i32 }

; Function Attrs: nounwind uwtable
define internal i32 @cvQuadSensEwtSetSV(ptr noundef %0, ptr noundef %1, ptr noundef %2) #0 {
  %4 = alloca i32, align 4
  %5 = alloca ptr, align 8
  %6 = alloca ptr, align 8
  %7 = alloca ptr, align 8
  %8 = alloca i32, align 4
  %9 = alloca i32, align 4
  store ptr %0, ptr %5, align 8, !tbaa !10
  store ptr %1, ptr %6, align 8, !tbaa !152
  store ptr %2, ptr %7, align 8, !tbaa !152
  call void @llvm.lifetime.start.p0(i64 4, ptr %8) #10
  store i32 0, ptr %8, align 4, !tbaa !3
  br label %10

10:                                               ; preds = %66, %3
  %11 = load i32, ptr %8, align 4, !tbaa !3
  %12 = load ptr, ptr %5, align 8, !tbaa !10
  %13 = getelementptr inbounds nuw %struct.CVodeMemRec, ptr %12, i32 0, i32 23
  %14 = load i32, ptr %13, align 8, !tbaa !230
  %15 = icmp slt i32 %11, %14
  br i1 %15, label %16, label %69

16:                                               ; preds = %10
  %17 = load ptr, ptr %6, align 8, !tbaa !152
  %18 = load i32, ptr %8, align 4, !tbaa !3
  %19 = sext i32 %18 to i64
  %20 = getelementptr inbounds ptr, ptr %17, i64 %19
  %21 = load ptr, ptr %20, align 8, !tbaa !151
  %22 = load ptr, ptr %5, align 8, !tbaa !10
  %23 = getelementptr inbounds nuw %struct.CVodeMemRec, ptr %22, i32 0, i32 65
  %24 = load ptr, ptr %23, align 8, !tbaa !226
  call void @N_VAbs(ptr noundef %21, ptr noundef %24)
  %25 = load ptr, ptr %5, align 8, !tbaa !10
  %26 = getelementptr inbounds nuw %struct.CVodeMemRec, ptr %25, i32 0, i32 47
  %27 = load double, ptr %26, align 8, !tbaa !257
  %28 = load ptr, ptr %5, align 8, !tbaa !10
  %29 = getelementptr inbounds nuw %struct.CVodeMemRec, ptr %28, i32 0, i32 65
  %30 = load ptr, ptr %29, align 8, !tbaa !226
  %31 = load ptr, ptr %5, align 8, !tbaa !10
  %32 = getelementptr inbounds nuw %struct.CVodeMemRec, ptr %31, i32 0, i32 49
  %33 = load ptr, ptr %32, align 8, !tbaa !259
  %34 = load i32, ptr %8, align 4, !tbaa !3
  %35 = sext i32 %34 to i64
  %36 = getelementptr inbounds ptr, ptr %33, i64 %35
  %37 = load ptr, ptr %36, align 8, !tbaa !151
  %38 = load ptr, ptr %5, align 8, !tbaa !10
  %39 = getelementptr inbounds nuw %struct.CVodeMemRec, ptr %38, i32 0, i32 65
  %40 = load ptr, ptr %39, align 8, !tbaa !226
  call void @N_VLinearSum(double noundef %27, ptr noundef %30, double noundef 1.000000e+00, ptr noundef %37, ptr noundef %40)
  %41 = load ptr, ptr %5, align 8, !tbaa !10
  %42 = getelementptr inbounds nuw %struct.CVodeMemRec, ptr %41, i32 0, i32 50
  %43 = load ptr, ptr %42, align 8, !tbaa !104
  %44 = load i32, ptr %8, align 4, !tbaa !3
  %45 = sext i32 %44 to i64
  %46 = getelementptr inbounds i32, ptr %43, i64 %45
  %47 = load i32, ptr %46, align 4, !tbaa !3
  %48 = icmp ne i32 %47, 0
  br i1 %48, label %49, label %57

49:                                               ; preds = %16
  %50 = load ptr, ptr %5, align 8, !tbaa !10
  %51 = getelementptr inbounds nuw %struct.CVodeMemRec, ptr %50, i32 0, i32 65
  %52 = load ptr, ptr %51, align 8, !tbaa !226
  %53 = call double @N_VMin(ptr noundef %52)
  %54 = fcmp ole double %53, 0.000000e+00
  br i1 %54, label %55, label %56

55:                                               ; preds = %49
  store i32 -1, ptr %4, align 4
  store i32 1, ptr %9, align 4
  br label %70

56:                                               ; preds = %49
  br label %57

57:                                               ; preds = %56, %16
  %58 = load ptr, ptr %5, align 8, !tbaa !10
  %59 = getelementptr inbounds nuw %struct.CVodeMemRec, ptr %58, i32 0, i32 65
  %60 = load ptr, ptr %59, align 8, !tbaa !226
  %61 = load ptr, ptr %7, align 8, !tbaa !152
  %62 = load i32, ptr %8, align 4, !tbaa !3
  %63 = sext i32 %62 to i64
  %64 = getelementptr inbounds ptr, ptr %61, i64 %63
  %65 = load ptr, ptr %64, align 8, !tbaa !151
  call void @N_VInv(ptr noundef %60, ptr noundef %65)
  br label %66

66:                                               ; preds = %57
  %67 = load i32, ptr %8, align 4, !tbaa !3
  %68 = add nsw i32 %67, 1
  store i32 %68, ptr %8, align 4, !tbaa !3
  br label %10

69:                                               ; preds = %10
  store i32 0, ptr %4, align 4
  store i32 1, ptr %9, align 4
  br label %70

70:                                               ; preds = %69, %55
  call void @llvm.lifetime.end.p0(i64 4, ptr %8) #10
  %71 = load i32, ptr %4, align 4
  ret i32 %71
}

; Function Attrs: nounwind uwtable
define internal i32 @cvQuadSensEwtSetSS(ptr noundef %0, ptr noundef %1, ptr noundef %2) #0 {
  %4 = alloca i32, align 4
  %5 = alloca ptr, align 8
  %6 = alloca ptr, align 8
  %7 = alloca ptr, align 8
  %8 = alloca i32, align 4
  %9 = alloca i32, align 4
  store ptr %0, ptr %5, align 8, !tbaa !10
  store ptr %1, ptr %6, align 8, !tbaa !152
  store ptr %2, ptr %7, align 8, !tbaa !152
  call void @llvm.lifetime.start.p0(i64 4, ptr %8) #10
  store i32 0, ptr %8, align 4, !tbaa !3
  br label %10

10:                                               ; preds = %72, %3
  %11 = load i32, ptr %8, align 4, !tbaa !3
  %12 = load ptr, ptr %5, align 8, !tbaa !10
  %13 = getelementptr inbounds nuw %struct.CVodeMemRec, ptr %12, i32 0, i32 23
  %14 = load i32, ptr %13, align 8, !tbaa !230
  %15 = icmp slt i32 %11, %14
  br i1 %15, label %16, label %75

16:                                               ; preds = %10
  %17 = load ptr, ptr %6, align 8, !tbaa !152
  %18 = load i32, ptr %8, align 4, !tbaa !3
  %19 = sext i32 %18 to i64
  %20 = getelementptr inbounds ptr, ptr %17, i64 %19
  %21 = load ptr, ptr %20, align 8, !tbaa !151
  %22 = load ptr, ptr %5, align 8, !tbaa !10
  %23 = getelementptr inbounds nuw %struct.CVodeMemRec, ptr %22, i32 0, i32 65
  %24 = load ptr, ptr %23, align 8, !tbaa !226
  call void @N_VAbs(ptr noundef %21, ptr noundef %24)
  %25 = load ptr, ptr %5, align 8, !tbaa !10
  %26 = getelementptr inbounds nuw %struct.CVodeMemRec, ptr %25, i32 0, i32 47
  %27 = load double, ptr %26, align 8, !tbaa !257
  %28 = load ptr, ptr %5, align 8, !tbaa !10
  %29 = getelementptr inbounds nuw %struct.CVodeMemRec, ptr %28, i32 0, i32 65
  %30 = load ptr, ptr %29, align 8, !tbaa !226
  %31 = load ptr, ptr %5, align 8, !tbaa !10
  %32 = getelementptr inbounds nuw %struct.CVodeMemRec, ptr %31, i32 0, i32 65
  %33 = load ptr, ptr %32, align 8, !tbaa !226
  call void @N_VScale(double noundef %27, ptr noundef %30, ptr noundef %33)
  %34 = load ptr, ptr %5, align 8, !tbaa !10
  %35 = getelementptr inbounds nuw %struct.CVodeMemRec, ptr %34, i32 0, i32 65
  %36 = load ptr, ptr %35, align 8, !tbaa !226
  %37 = load ptr, ptr %5, align 8, !tbaa !10
  %38 = getelementptr inbounds nuw %struct.CVodeMemRec, ptr %37, i32 0, i32 48
  %39 = load ptr, ptr %38, align 8, !tbaa !258
  %40 = load i32, ptr %8, align 4, !tbaa !3
  %41 = sext i32 %40 to i64
  %42 = getelementptr inbounds double, ptr %39, i64 %41
  %43 = load double, ptr %42, align 8, !tbaa !150
  %44 = load ptr, ptr %5, align 8, !tbaa !10
  %45 = getelementptr inbounds nuw %struct.CVodeMemRec, ptr %44, i32 0, i32 65
  %46 = load ptr, ptr %45, align 8, !tbaa !226
  call void @N_VAddConst(ptr noundef %36, double noundef %43, ptr noundef %46)
  %47 = load ptr, ptr %5, align 8, !tbaa !10
  %48 = getelementptr inbounds nuw %struct.CVodeMemRec, ptr %47, i32 0, i32 50
  %49 = load ptr, ptr %48, align 8, !tbaa !104
  %50 = load i32, ptr %8, align 4, !tbaa !3
  %51 = sext i32 %50 to i64
  %52 = getelementptr inbounds i32, ptr %49, i64 %51
  %53 = load i32, ptr %52, align 4, !tbaa !3
  %54 = icmp ne i32 %53, 0
  br i1 %54, label %55, label %63

55:                                               ; preds = %16
  %56 = load ptr, ptr %5, align 8, !tbaa !10
  %57 = getelementptr inbounds nuw %struct.CVodeMemRec, ptr %56, i32 0, i32 65
  %58 = load ptr, ptr %57, align 8, !tbaa !226
  %59 = call double @N_VMin(ptr noundef %58)
  %60 = fcmp ole double %59, 0.000000e+00
  br i1 %60, label %61, label %62

61:                                               ; preds = %55
  store i32 -1, ptr %4, align 4
  store i32 1, ptr %9, align 4
  br label %76

62:                                               ; preds = %55
  br label %63

63:                                               ; preds = %62, %16
  %64 = load ptr, ptr %5, align 8, !tbaa !10
  %65 = getelementptr inbounds nuw %struct.CVodeMemRec, ptr %64, i32 0, i32 65
  %66 = load ptr, ptr %65, align 8, !tbaa !226
  %67 = load ptr, ptr %7, align 8, !tbaa !152
  %68 = load i32, ptr %8, align 4, !tbaa !3
  %69 = sext i32 %68 to i64
  %70 = getelementptr inbounds ptr, ptr %67, i64 %69
  %71 = load ptr, ptr %70, align 8, !tbaa !151
  call void @N_VInv(ptr noundef %66, ptr noundef %71)
  br label %72

72:                                               ; preds = %63
  %73 = load i32, ptr %8, align 4, !tbaa !3
  %74 = add nsw i32 %73, 1
  store i32 %74, ptr %8, align 4, !tbaa !3
  br label %10

75:                                               ; preds = %10
  store i32 0, ptr %4, align 4
  store i32 1, ptr %9, align 4
  br label %76

76:                                               ; preds = %75, %61
  call void @llvm.lifetime.end.p0(i64 4, ptr %8) #10
  %77 = load i32, ptr %4, align 4
  ret i32 %77
}

; Function Attrs: nounwind uwtable
define internal i32 @cvQuadSensEwtSetEE(ptr noundef %0, ptr noundef %1, ptr noundef %2) #0 {
  %4 = alloca i32, align 4
  %5 = alloca ptr, align 8
  %6 = alloca ptr, align 8
  %7 = alloca ptr, align 8
  %8 = alloca i32, align 4
  %9 = alloca ptr, align 8
  %10 = alloca i32, align 4
  %11 = alloca i32, align 4
  store ptr %0, ptr %5, align 8, !tbaa !10
  store ptr %1, ptr %6, align 8, !tbaa !152
  store ptr %2, ptr %7, align 8, !tbaa !152
  call void @llvm.lifetime.start.p0(i64 4, ptr %8) #10
  call void @llvm.lifetime.start.p0(i64 8, ptr %9) #10
  call void @llvm.lifetime.start.p0(i64 4, ptr %10) #10
  %12 = load ptr, ptr %5, align 8, !tbaa !10
  %13 = getelementptr inbounds nuw %struct.CVodeMemRec, ptr %12, i32 0, i32 77
  %14 = load ptr, ptr %13, align 8, !tbaa !255
  %15 = getelementptr inbounds ptr, ptr %14, i64 0
  %16 = load ptr, ptr %15, align 8, !tbaa !151
  store ptr %16, ptr %9, align 8, !tbaa !151
  store i32 0, ptr %8, align 4, !tbaa !3
  br label %17

17:                                               ; preds = %66, %3
  %18 = load i32, ptr %8, align 4, !tbaa !3
  %19 = load ptr, ptr %5, align 8, !tbaa !10
  %20 = getelementptr inbounds nuw %struct.CVodeMemRec, ptr %19, i32 0, i32 23
  %21 = load i32, ptr %20, align 8, !tbaa !230
  %22 = icmp slt i32 %18, %21
  br i1 %22, label %23, label %69

23:                                               ; preds = %17
  %24 = load ptr, ptr %5, align 8, !tbaa !10
  %25 = getelementptr inbounds nuw %struct.CVodeMemRec, ptr %24, i32 0, i32 31
  %26 = load ptr, ptr %25, align 8, !tbaa !89
  %27 = load i32, ptr %8, align 4, !tbaa !3
  %28 = sext i32 %27 to i64
  %29 = getelementptr inbounds double, ptr %26, i64 %28
  %30 = load double, ptr %29, align 8, !tbaa !150
  %31 = load ptr, ptr %6, align 8, !tbaa !152
  %32 = load i32, ptr %8, align 4, !tbaa !3
  %33 = sext i32 %32 to i64
  %34 = getelementptr inbounds ptr, ptr %31, i64 %33
  %35 = load ptr, ptr %34, align 8, !tbaa !151
  %36 = load ptr, ptr %9, align 8, !tbaa !151
  call void @N_VScale(double noundef %30, ptr noundef %35, ptr noundef %36)
  %37 = load ptr, ptr %5, align 8, !tbaa !10
  %38 = load ptr, ptr %9, align 8, !tbaa !151
  %39 = load ptr, ptr %7, align 8, !tbaa !152
  %40 = load i32, ptr %8, align 4, !tbaa !3
  %41 = sext i32 %40 to i64
  %42 = getelementptr inbounds ptr, ptr %39, i64 %41
  %43 = load ptr, ptr %42, align 8, !tbaa !151
  %44 = call i32 @cvQuadEwtSet(ptr noundef %37, ptr noundef %38, ptr noundef %43)
  store i32 %44, ptr %10, align 4, !tbaa !3
  %45 = load i32, ptr %10, align 4, !tbaa !3
  %46 = icmp ne i32 %45, 0
  br i1 %46, label %47, label %48

47:                                               ; preds = %23
  store i32 -1, ptr %4, align 4
  store i32 1, ptr %11, align 4
  br label %70

48:                                               ; preds = %23
  %49 = load ptr, ptr %5, align 8, !tbaa !10
  %50 = getelementptr inbounds nuw %struct.CVodeMemRec, ptr %49, i32 0, i32 31
  %51 = load ptr, ptr %50, align 8, !tbaa !89
  %52 = load i32, ptr %8, align 4, !tbaa !3
  %53 = sext i32 %52 to i64
  %54 = getelementptr inbounds double, ptr %51, i64 %53
  %55 = load double, ptr %54, align 8, !tbaa !150
  %56 = load ptr, ptr %7, align 8, !tbaa !152
  %57 = load i32, ptr %8, align 4, !tbaa !3
  %58 = sext i32 %57 to i64
  %59 = getelementptr inbounds ptr, ptr %56, i64 %58
  %60 = load ptr, ptr %59, align 8, !tbaa !151
  %61 = load ptr, ptr %7, align 8, !tbaa !152
  %62 = load i32, ptr %8, align 4, !tbaa !3
  %63 = sext i32 %62 to i64
  %64 = getelementptr inbounds ptr, ptr %61, i64 %63
  %65 = load ptr, ptr %64, align 8, !tbaa !151
  call void @N_VScale(double noundef %55, ptr noundef %60, ptr noundef %65)
  br label %66

66:                                               ; preds = %48
  %67 = load i32, ptr %8, align 4, !tbaa !3
  %68 = add nsw i32 %67, 1
  store i32 %68, ptr %8, align 4, !tbaa !3
  br label %17

69:                                               ; preds = %17
  store i32 0, ptr %4, align 4
  store i32 1, ptr %11, align 4
  br label %70

70:                                               ; preds = %69, %47
  call void @llvm.lifetime.end.p0(i64 4, ptr %10) #10
  call void @llvm.lifetime.end.p0(i64 8, ptr %9) #10
  call void @llvm.lifetime.end.p0(i64 4, ptr %8) #10
  %71 = load i32, ptr %4, align 4
  ret i32 %71
}

; Function Attrs: nounwind uwtable
define internal i32 @cvQuadSensEwtSet(ptr noundef %0, ptr noundef %1, ptr noundef %2) #0 {
  %4 = alloca ptr, align 8
  %5 = alloca ptr, align 8
  %6 = alloca ptr, align 8
  %7 = alloca i32, align 4
  store ptr %0, ptr %4, align 8, !tbaa !10
  store ptr %1, ptr %5, align 8, !tbaa !152
  store ptr %2, ptr %6, align 8, !tbaa !152
  call void @llvm.lifetime.start.p0(i64 4, ptr %7) #10
  store i32 0, ptr %7, align 4, !tbaa !3
  %8 = load ptr, ptr %4, align 8, !tbaa !10
  %9 = getelementptr inbounds nuw %struct.CVodeMemRec, ptr %8, i32 0, i32 46
  %10 = load i32, ptr %9, align 8, !tbaa !103
  switch i32 %10, label %26 [
    i32 4, label %11
    i32 1, label %16
    i32 2, label %21
  ]

11:                                               ; preds = %3
  %12 = load ptr, ptr %4, align 8, !tbaa !10
  %13 = load ptr, ptr %5, align 8, !tbaa !152
  %14 = load ptr, ptr %6, align 8, !tbaa !152
  %15 = call i32 @cvQuadSensEwtSetEE(ptr noundef %12, ptr noundef %13, ptr noundef %14)
  store i32 %15, ptr %7, align 4, !tbaa !3
  br label %26

16:                                               ; preds = %3
  %17 = load ptr, ptr %4, align 8, !tbaa !10
  %18 = load ptr, ptr %5, align 8, !tbaa !152
  %19 = load ptr, ptr %6, align 8, !tbaa !152
  %20 = call i32 @cvQuadSensEwtSetSS(ptr noundef %17, ptr noundef %18, ptr noundef %19)
  store i32 %20, ptr %7, align 4, !tbaa !3
  br label %26

21:                                               ; preds = %3
  %22 = load ptr, ptr %4, align 8, !tbaa !10
  %23 = load ptr, ptr %5, align 8, !tbaa !152
  %24 = load ptr, ptr %6, align 8, !tbaa !152
  %25 = call i32 @cvQuadSensEwtSetSV(ptr noundef %22, ptr noundef %23, ptr noundef %24)
  store i32 %25, ptr %7, align 4, !tbaa !3
  br label %26

26:                                               ; preds = %3, %21, %16, %11
  %27 = load i32, ptr %7, align 4, !tbaa !3
  call void @llvm.lifetime.end.p0(i64 4, ptr %7) #10
  ret i32 %27
}