; Function Attrs: nounwind uwtable
define internal fastcc range(i32 -1, 1) i32 @cvQuadSensEwtSet(ptr noundef nonnull readonly captures(none) %0, ptr noundef readonly captures(none) %1, ptr noundef readonly captures(none) %2) unnamed_addr #0 {
  %4 = getelementptr inbounds nuw i8, ptr %0, i64 296
  %5 = load i32, ptr %4, align 8, !tbaa !201
  switch i32 %5, label %cvQuadSensEwtSetEE.exit [
    i32 4, label %6
    i32 1, label %30
    i32 2, label %62
  ]

6:                                                ; preds = %3
  %7 = getelementptr inbounds nuw i8, ptr %0, i64 928
  %8 = load ptr, ptr %7, align 8, !tbaa !193
  %9 = load ptr, ptr %8, align 8, !tbaa !65
  %10 = getelementptr inbounds nuw i8, ptr %0, i64 192
  %11 = getelementptr inbounds nuw i8, ptr %0, i64 144
  %12 = load i32, ptr %11, align 8, !tbaa !156
  %13 = icmp sgt i32 %12, 0
  br i1 %13, label %.lr.ph.i, label %cvQuadSensEwtSetEE.exit

.lr.ph.i:                                         ; preds = %6, %22
  %indvars.iv.i = phi i64 [ %indvars.iv.next.i, %22 ], [ 0, %6 ]
  %14 = load ptr, ptr %10, align 8, !tbaa !68
  %15 = getelementptr inbounds nuw double, ptr %14, i64 %indvars.iv.i
  %16 = load double, ptr %15, align 8, !tbaa !69
  %17 = getelementptr inbounds nuw ptr, ptr %1, i64 %indvars.iv.i
  %18 = load ptr, ptr %17, align 8, !tbaa !65
  tail call void @N_VScale(double noundef %16, ptr noundef %18, ptr noundef %9) #13
  %19 = getelementptr inbounds nuw ptr, ptr %2, i64 %indvars.iv.i
  %20 = load ptr, ptr %19, align 8, !tbaa !65
  %21 = tail call fastcc i32 @cvQuadEwtSet(ptr noundef nonnull readonly %0, ptr noundef %9, ptr noundef %20)
  %.not.i = icmp eq i32 %21, 0
  br i1 %.not.i, label %22, label %cvQuadSensEwtSetEE.exit

22:                                               ; preds = %.lr.ph.i
  %23 = load ptr, ptr %10, align 8, !tbaa !68
  %24 = getelementptr inbounds nuw double, ptr %23, i64 %indvars.iv.i
  %25 = load double, ptr %24, align 8, !tbaa !69
  %26 = load ptr, ptr %19, align 8, !tbaa !65
  tail call void @N_VScale(double noundef %25, ptr noundef %26, ptr noundef %26) #13
  %indvars.iv.next.i = add nuw nsw i64 %indvars.iv.i, 1
  %27 = load i32, ptr %11, align 8, !tbaa !156
  %28 = sext i32 %27 to i64
  %29 = icmp slt i64 %indvars.iv.next.i, %28
  br i1 %29, label %.lr.ph.i, label %cvQuadSensEwtSetEE.exit

30:                                               ; preds = %3
  %31 = getelementptr inbounds nuw i8, ptr %0, i64 144
  %32 = load i32, ptr %31, align 8, !tbaa !156
  %33 = icmp sgt i32 %32, 0
  br i1 %33, label %.lr.ph.i10, label %cvQuadSensEwtSetEE.exit

.lr.ph.i10:                                       ; preds = %30
  %34 = getelementptr inbounds nuw i8, ptr %0, i64 640
  %35 = getelementptr inbounds nuw i8, ptr %0, i64 304
  %36 = getelementptr inbounds nuw i8, ptr %0, i64 312
  %37 = getelementptr inbounds nuw i8, ptr %0, i64 328
  br label %38

38:                                               ; preds = %55, %.lr.ph.i10
  %indvars.iv.i11 = phi i64 [ 0, %.lr.ph.i10 ], [ %indvars.iv.next.i13, %55 ]
  %39 = getelementptr inbounds nuw ptr, ptr %1, i64 %indvars.iv.i11
  %40 = load ptr, ptr %39, align 8, !tbaa !65
  %41 = load ptr, ptr %34, align 8, !tbaa !144
  tail call void @N_VAbs(ptr noundef %40, ptr noundef %41) #13
  %42 = load double, ptr %35, align 8, !tbaa !202
  %43 = load ptr, ptr %34, align 8, !tbaa !144
  tail call void @N_VScale(double noundef %42, ptr noundef %43, ptr noundef %43) #13
  %44 = load ptr, ptr %34, align 8, !tbaa !144
  %45 = load ptr, ptr %36, align 8, !tbaa !204
  %46 = getelementptr inbounds nuw double, ptr %45, i64 %indvars.iv.i11
  %47 = load double, ptr %46, align 8, !tbaa !69
  tail call void @N_VAddConst(ptr noundef %44, double noundef %47, ptr noundef %44) #13
  %48 = load ptr, ptr %37, align 8, !tbaa !205
  %49 = getelementptr inbounds nuw i32, ptr %48, i64 %indvars.iv.i11
  %50 = load i32, ptr %49, align 4, !tbaa !67
  %.not.i12 = icmp eq i32 %50, 0
  br i1 %.not.i12, label %55, label %51

51:                                               ; preds = %38
  %52 = load ptr, ptr %34, align 8, !tbaa !144
  %53 = tail call double @N_VMin(ptr noundef %52) #13
  %54 = fcmp ugt double %53, 0.000000e+00
  br i1 %54, label %55, label %cvQuadSensEwtSetEE.exit

55:                                               ; preds = %51, %38
  %56 = load ptr, ptr %34, align 8, !tbaa !144
  %57 = getelementptr inbounds nuw ptr, ptr %2, i64 %indvars.iv.i11
  %58 = load ptr, ptr %57, align 8, !tbaa !65
  tail call void @N_VInv(ptr noundef %56, ptr noundef %58) #13
  %indvars.iv.next.i13 = add nuw nsw i64 %indvars.iv.i11, 1
  %59 = load i32, ptr %31, align 8, !tbaa !156
  %60 = sext i32 %59 to i64
  %61 = icmp slt i64 %indvars.iv.next.i13, %60
  br i1 %61, label %38, label %cvQuadSensEwtSetEE.exit

62:                                               ; preds = %3
  %63 = getelementptr inbounds nuw i8, ptr %0, i64 144
  %64 = load i32, ptr %63, align 8, !tbaa !156
  %65 = icmp sgt i32 %64, 0
  br i1 %65, label %.lr.ph.i14, label %cvQuadSensEwtSetEE.exit

.lr.ph.i14:                                       ; preds = %62
  %66 = getelementptr inbounds nuw i8, ptr %0, i64 640
  %67 = getelementptr inbounds nuw i8, ptr %0, i64 304
  %68 = getelementptr inbounds nuw i8, ptr %0, i64 320
  %69 = getelementptr inbounds nuw i8, ptr %0, i64 328
  br label %70

70:                                               ; preds = %86, %.lr.ph.i14
  %indvars.iv.i15 = phi i64 [ 0, %.lr.ph.i14 ], [ %indvars.iv.next.i17, %86 ]
  %71 = getelementptr inbounds nuw ptr, ptr %1, i64 %indvars.iv.i15
  %72 = load ptr, ptr %71, align 8, !tbaa !65
  %73 = load ptr, ptr %66, align 8, !tbaa !144
  tail call void @N_VAbs(ptr noundef %72, ptr noundef %73) #13
  %74 = load double, ptr %67, align 8, !tbaa !202
  %75 = load ptr, ptr %66, align 8, !tbaa !144
  %76 = load ptr, ptr %68, align 8, !tbaa !207
  %77 = getelementptr inbounds nuw ptr, ptr %76, i64 %indvars.iv.i15
  %78 = load ptr, ptr %77, align 8, !tbaa !65
  tail call void @N_VLinearSum(double noundef %74, ptr noundef %75, double noundef 1.000000e+00, ptr noundef %78, ptr noundef %75) #13
  %79 = load ptr, ptr %69, align 8, !tbaa !205
  %80 = getelementptr inbounds nuw i32, ptr %79, i64 %indvars.iv.i15
  %81 = load i32, ptr %80, align 4, !tbaa !67
  %.not.i16 = icmp eq i32 %81, 0
  br i1 %.not.i16, label %86, label %82

82:                                               ; preds = %70
  %83 = load ptr, ptr %66, align 8, !tbaa !144
  %84 = tail call double @N_VMin(ptr noundef %83) #13
  %85 = fcmp ugt double %84, 0.000000e+00
  br i1 %85, label %86, label %cvQuadSensEwtSetEE.exit

86:                                               ; preds = %82, %70
  %87 = load ptr, ptr %66, align 8, !tbaa !144
  %88 = getelementptr inbounds nuw ptr, ptr %2, i64 %indvars.iv.i15
  %89 = load ptr, ptr %88, align 8, !tbaa !65
  tail call void @N_VInv(ptr noundef %87, ptr noundef %89) #13
  %indvars.iv.next.i17 = add nuw nsw i64 %indvars.iv.i15, 1
  %90 = load i32, ptr %63, align 8, !tbaa !156
  %91 = sext i32 %90 to i64
  %92 = icmp slt i64 %indvars.iv.next.i17, %91
  br i1 %92, label %70, label %cvQuadSensEwtSetEE.exit

cvQuadSensEwtSetEE.exit:                          ; preds = %86, %82, %55, %51, %22, %.lr.ph.i, %62, %30, %6, %3
  %.0 = phi i32 [ 0, %3 ], [ 0, %6 ], [ 0, %30 ], [ 0, %62 ], [ -1, %.lr.ph.i ], [ 0, %22 ], [ -1, %51 ], [ 0, %55 ], [ -1, %82 ], [ 0, %86 ]
  ret i32 %.0
}